Certificate:
    Data:
        Version: 1 (0x0)
        Serial Number: 1 (0x1)
    Signature Algorithm: md5WithRSAEncryption
        Issuer: C=ca, ST=ca, L=ca, O=ca, OU=ca, CN=ca/emailAddress=ca
        Validity
            Not Before: Jul 24 07:05:41 2018 GMT
            Not After : Jul 24 07:05:41 2019 GMT
        Subject: C=se, ST=se, L=s, O=se, OU=se, CN=se/emailAddress=se
        Subject Public Key Info:
            Public Key Algorithm: rsaEncryption
                Public-Key: (512 bit)
                Modulus:
                    00:9f:10:56:d7:97:28:e0:fc:d3:ec:5b:f4:46:2f:
                    fd:f8:71:de:e6:46:c1:60:96:14:2e:57:c3:63:10:
                    99:18:4a:f7:1b:99:0a:da:b7:33:15:55:f4:c1:37:
                    a6:14:78:19:3d:86:92:1c:1f:c7:a4:8b:ec:63:fe:
                    ea:7e:6e:22:f5
                Exponent: 65537 (0x10001)
    Signature Algorithm: md5WithRSAEncryption
         13:9d:b3:80:2c:9f:a3:28:44:87:50:90:4c:1f:27:4c:51:8c:
         ce:54:67:29:03:fa:b3:af:02:d8:02:49:52:d1:b4:47:fe:20:
         3d:fe:e3:d5:96:01:07:24:e5:69:ef:5b:a9:ab:a3:aa:4a:02:
         a3:71:66:60:cd:4d:c4:b7:36:2a
-----BEGIN CERTIFICATE-----
MIIBqzCCAVUCAQEwDQYJKoZIhvcNAQEEBQAwYTELMAkGA1UEBhMCY2ExCzAJBgNV
BAgMAmNhMQswCQYDVQQHDAJjYTELMAkGA1UECgwCY2ExCzAJBgNVBAsMAmNhMQsw
CQYDVQQDDAJjYTERMA8GCSqGSIb3DQEJARYCY2EwHhcNMTgwNzI0MDcwNTQxWhcN
MTkwNzI0MDcwNTQxWjBgMQswCQYDVQQGEwJzZTELMAkGA1UECAwCc2UxCjAIBgNV
BAcMAXMxCzAJBgNVBAoMAnNlMQswCQYDVQQLDAJzZTELMAkGA1UEAwwCc2UxETAP
BgkqhkiG9w0BCQEWAnNlMFwwDQYJKoZIhvcNAQEBBQADSwAwSAJBAJ8QVteXKOD8
0+xb9EYv/fhx3uZGwWCWFC5Xw2MQmRhK9xuZCtq3MxVV9ME3phR4GT2Gkhwfx6SL
7GP+6n5uIvUCAwEAATANBgkqhkiG9w0BAQQFAANBABOds4Asn6MoRIdQkEwfJ0xR
jM5UZykD+rOvAtgCSVLRtEf+ID3+49WWAQck5WnvW6mro6pKAqNxZmDNTcS3Nio=
-----END CERTIFICATE-----
