Certificate:
    Data:
        Version: 1 (0x0)
        Serial Number: 2 (0x2)
    Signature Algorithm: md5WithRSAEncryption
        Issuer: C=ca, ST=ca, L=ca, O=ca, OU=ca, CN=ca/emailAddress=ca
        Validity
            Not Before: Jul 24 07:27:48 2018 GMT
            Not After : Jul 24 07:27:48 2019 GMT
        Subject: C=cl, ST=cl, L=cl, O=cl, OU=cl, CN=cl/emailAddress=cl
        Subject Public Key Info:
            Public Key Algorithm: rsaEncryption
                Public-Key: (512 bit)
                Modulus:
                    00:b5:f5:88:57:f2:18:5f:af:1d:57:6f:8f:b0:79:
                    e8:7d:7a:90:e2:b8:22:46:a9:21:dd:2c:cb:3e:3a:
                    97:cf:4a:75:d9:38:c6:8f:42:0d:cd:d2:d0:ab:0e:
                    d9:d9:3e:0a:06:d5:c3:fa:4b:fc:e5:56:5a:23:76:
                    60:64:b1:c6:63
                Exponent: 65537 (0x10001)
    Signature Algorithm: md5WithRSAEncryption
         18:0d:d6:3d:d8:e8:08:aa:6d:4d:82:6c:85:e5:b3:95:f9:70:
         bd:66:5f:d3:f8:d8:e4:cc:c8:10:9d:4d:b3:d4:65:9e:f8:e6:
         87:f9:c9:2b:b0:f9:25:03:18:5e:5a:e9:2a:d9:2b:e3:c0:73:
         de:a4:db:92:c6:fc:d8:2c:6d:f1
-----BEGIN CERTIFICATE-----
MIIBrDCCAVYCAQIwDQYJKoZIhvcNAQEEBQAwYTELMAkGA1UEBhMCY2ExCzAJBgNV
BAgMAmNhMQswCQYDVQQHDAJjYTELMAkGA1UECgwCY2ExCzAJBgNVBAsMAmNhMQsw
CQYDVQQDDAJjYTERMA8GCSqGSIb3DQEJARYCY2EwHhcNMTgwNzI0MDcyNzQ4WhcN
MTkwNzI0MDcyNzQ4WjBhMQswCQYDVQQGEwJjbDELMAkGA1UECAwCY2wxCzAJBgNV
BAcMAmNsMQswCQYDVQQKDAJjbDELMAkGA1UECwwCY2wxCzAJBgNVBAMMAmNsMREw
DwYJKoZIhvcNAQkBFgJjbDBcMA0GCSqGSIb3DQEBAQUAA0sAMEgCQQC19YhX8hhf
rx1Xb4+weeh9epDiuCJGqSHdLMs+OpfPSnXZOMaPQg3N0tCrDtnZPgoG1cP6S/zl
VlojdmBkscZjAgMBAAEwDQYJKoZIhvcNAQEEBQADQQAYDdY92OgIqm1NgmyF5bOV
+XC9Zl/T+NjkzMgQnU2z1GWe+OaH+ckrsPklAxheWukq2SvjwHPepNuSxvzYLG3x
-----END CERTIFICATE-----
